target datalayout = "e-m:e-p270:32:32-p271:32:32-p272:64:64-i64:64-i128:128-f80:128-n8:16:32:64-S128"
target triple = "x86_64-pc-linux-gnu"

%struct.Sat_MmStep_t_ = type { i32, ptr, i32, ptr, i32, i32, ptr }

; Function Attrs: nounwind uwtable
define void @Sat_MmStepStop(ptr noundef %0, i32 noundef %1) #0 {
  %3 = alloca ptr, align 8
  %4 = alloca i32, align 4
  %5 = alloca i32, align 4
  store ptr %0, ptr %3, align 8, !tbaa !43
  store i32 %1, ptr %4, align 4, !tbaa !3
  call void @llvm.lifetime.start.p0(i64 4, ptr %5) #7
  %6 = load ptr, ptr %3, align 8, !tbaa !43
  %7 = getelementptr inbounds nuw %struct.Sat_MmStep_t_, ptr %6, i32 0, i32 4
  %8 = load i32, ptr %7, align 8, !tbaa !55
  %9 = icmp ne i32 %8, 0
  br i1 %9, label %10, label %58

10:                                               ; preds = %2
  store i32 0, ptr %5, align 4, !tbaa !3
  br label %11

11:                                               ; preds = %42, %10
  %12 = load i32, ptr %5, align 4, !tbaa !3
  %13 = load ptr, ptr %3, align 8, !tbaa !43
  %14 = getelementptr inbounds nuw %struct.Sat_MmStep_t_, ptr %13, i32 0, i32 5
  %15 = load i32, ptr %14, align 4, !tbaa !56
  %16 = icmp slt i32 %12, %15
  br i1 %16, label %17, label %45

17:                                               ; preds = %11
  %18 = load ptr, ptr %3, align 8, !tbaa !43
  %19 = getelementptr inbounds nuw %struct.Sat_MmStep_t_, ptr %18, i32 0, i32 6
  %20 = load ptr, ptr %19, align 8, !tbaa !57
  %21 = load i32, ptr %5, align 4, !tbaa !3
  %22 = sext i32 %21 to i64
  %23 = getelementptr inbounds ptr, ptr %20, i64 %22
  %24 = load ptr, ptr %23, align 8, !tbaa !24
  %25 = icmp ne ptr %24, null
  br i1 %25, label %26, label %40

26:                                               ; preds = %17
  %27 = load ptr, ptr %3, align 8, !tbaa !43
  %28 = getelementptr inbounds nuw %struct.Sat_MmStep_t_, ptr %27, i32 0, i32 6
  %29 = load ptr, ptr %28, align 8, !tbaa !57
  %30 = load i32, ptr %5, align 4, !tbaa !3
  %31 = sext i32 %30 to i64
  %32 = getelementptr inbounds ptr, ptr %29, i64 %31
  %33 = load ptr, ptr %32, align 8, !tbaa !24
  call void @free(ptr noundef %33) #7
  %34 = load ptr, ptr %3, align 8, !tbaa !43
  %35 = getelementptr inbounds nuw %struct.Sat_MmStep_t_, ptr %34, i32 0, i32 6
  %36 = load ptr, ptr %35, align 8, !tbaa !57
  %37 = load i32, ptr %5, align 4, !tbaa !3
  %38 = sext i32 %37 to i64
  %39 = getelementptr inbounds ptr, ptr %36, i64 %38
  store ptr null, ptr %39, align 8, !tbaa !24
  br label %41

40:                                               ; preds = %17
  br label %41

41:                                               ; preds = %40, %26
  br label %42

42:                                               ; preds = %41
  %43 = load i32, ptr %5, align 4, !tbaa !3
  %44 = add nsw i32 %43, 1
  store i32 %44, ptr %5, align 4, !tbaa !3
  br label %11, !llvm.loop !58

45:                                               ; preds = %11
  %46 = load ptr, ptr %3, align 8, !tbaa !43
  %47 = getelementptr inbounds nuw %struct.Sat_MmStep_t_, ptr %46, i32 0, i32 6
  %48 = load ptr, ptr %47, align 8, !tbaa !57
  %49 = icmp ne ptr %48, null
  br i1 %49, label %50, label %56

50:                                               ; preds = %45
  %51 = load ptr, ptr %3, align 8, !tbaa !43
  %52 = getelementptr inbounds nuw %struct.Sat_MmStep_t_, ptr %51, i32 0, i32 6
  %53 = load ptr, ptr %52, align 8, !tbaa !57
  call void @free(ptr noundef %53) #7
  %54 = load ptr, ptr %3, align 8, !tbaa !43
  %55 = getelementptr inbounds nuw %struct.Sat_MmStep_t_, ptr %54, i32 0, i32 6
  store ptr null, ptr %55, align 8, !tbaa !57
  br label %57

56:                                               ; preds = %45
  br label %57

57:                                               ; preds = %56, %50
  br label %58

58:                                               ; preds = %57, %2
  store i32 0, ptr %5, align 4, !tbaa !3
  br label %59

59:                                               ; preds = %74, %58
  %60 = load i32, ptr %5, align 4, !tbaa !3
  %61 = load ptr, ptr %3, align 8, !tbaa !43
  %62 = getelementptr inbounds nuw %struct.Sat_MmStep_t_, ptr %61, i32 0, i32 0
  %63 = load i32, ptr %62, align 8, !tbaa !45
  %64 = icmp slt i32 %60, %63
  br i1 %64, label %65, label %77

65:                                               ; preds = %59
  %66 = load ptr, ptr %3, align 8, !tbaa !43
  %67 = getelementptr inbounds nuw %struct.Sat_MmStep_t_, ptr %66, i32 0, i32 1
  %68 = load ptr, ptr %67, align 8, !tbaa !48
  %69 = load i32, ptr %5, align 4, !tbaa !3
  %70 = sext i32 %69 to i64
  %71 = getelementptr inbounds ptr, ptr %68, i64 %70
  %72 = load ptr, ptr %71, align 8, !tbaa !7
  %73 = load i32, ptr %4, align 4, !tbaa !3
  call void @Sat_MmFixedStop(ptr noundef %72, i32 noundef %73)
  br label %74

74:                                               ; preds = %65
  %75 = load i32, ptr %5, align 4, !tbaa !3
  %76 = add nsw i32 %75, 1
  store i32 %76, ptr %5, align 4, !tbaa !3
  br label %59, !llvm.loop !59

77:                                               ; preds = %59
  %78 = load ptr, ptr %3, align 8, !tbaa !43
  %79 = getelementptr inbounds nuw %struct.Sat_MmStep_t_, ptr %78, i32 0, i32 1
  %80 = load ptr, ptr %79, align 8, !tbaa !48
  %81 = icmp ne ptr %80, null
  br i1 %81, label %82, label %88

82:                                               ; preds = %77
  %83 = load ptr, ptr %3, align 8, !tbaa !43
  %84 = getelementptr inbounds nuw %struct.Sat_MmStep_t_, ptr %83, i32 0, i32 1
  %85 = load ptr, ptr %84, align 8, !tbaa !48
  call void @free(ptr noundef %85) #7
  %86 = load ptr, ptr %3, align 8, !tbaa !43
  %87 = getelementptr inbounds nuw %struct.Sat_MmStep_t_, ptr %86, i32 0, i32 1
  store ptr null, ptr %87, align 8, !tbaa !48
  br label %89

88:                                               ; preds = %77
  br label %89

89:                                               ; preds = %88, %82
  %90 = load ptr, ptr %3, align 8, !tbaa !43
  %91 = getelementptr inbounds nuw %struct.Sat_MmStep_t_, ptr %90, i32 0, i32 3
  %92 = load ptr, ptr %91, align 8, !tbaa !51
  %93 = icmp ne ptr %92, null
  br i1 %93, label %94, label %100

94:                                               ; preds = %89
  %95 = load ptr, ptr %3, align 8, !tbaa !43
  %96 = getelementptr inbounds nuw %struct.Sat_MmStep_t_, ptr %95, i32 0, i32 3
  %97 = load ptr, ptr %96, align 8, !tbaa !51
  call void @free(ptr noundef %97) #7
  %98 = load ptr, ptr %3, align 8, !tbaa !43
  %99 = getelementptr inbounds nuw %struct.Sat_MmStep_t_, ptr %98, i32 0, i32 3
  store ptr null, ptr %99, align 8, !tbaa !51
  br label %101

100:                                              ; preds = %89
  br label %101

101:                                              ; preds = %100, %94
  %102 = load ptr, ptr %3, align 8, !tbaa !43
  %103 = icmp ne ptr %102, null
  br i1 %103, label %104, label %106

104:                                              ; preds = %101
  %105 = load ptr, ptr %3, align 8, !tbaa !43
  call void @free(ptr noundef %105) #7
  store ptr null, ptr %3, align 8, !tbaa !43
  br label %107

106:                                              ; preds = %101
  br label %107

107:                                              ; preds = %106, %104
  call void @llvm.lifetime.end.p0(i64 4, ptr %5) #7
  ret void
}