; Function Attrs: nounwind uwtable
define void @Sat_MmStepStop(ptr noundef captures(none) %0, i32 noundef %1) local_unnamed_addr #2 {
  %3 = getelementptr inbounds nuw i8, ptr %0, i64 32
  %4 = load i32, ptr %3, align 8, !tbaa !50
  %.not = icmp eq i32 %4, 0
  br i1 %.not, label %23, label %.preheader

.preheader:                                       ; preds = %2
  %5 = getelementptr inbounds nuw i8, ptr %0, i64 36
  %6 = load i32, ptr %5, align 4, !tbaa !51
  %7 = icmp sgt i32 %6, 0
  %8 = getelementptr inbounds nuw i8, ptr %0, i64 40
  %.pre = load ptr, ptr %8, align 8, !tbaa !52
  br i1 %7, label %.lr.ph, label %._crit_edge

.lr.ph:                                           ; preds = %.preheader, %16
  %9 = phi i32 [ %17, %16 ], [ %6, %.preheader ]
  %10 = phi ptr [ %18, %16 ], [ %.pre, %.preheader ]
  %indvars.iv = phi i64 [ %indvars.iv.next, %16 ], [ 0, %.preheader ]
  %11 = getelementptr inbounds nuw ptr, ptr %10, i64 %indvars.iv
  %12 = load ptr, ptr %11, align 8, !tbaa !19
  %.not33 = icmp eq ptr %12, null
  br i1 %.not33, label %16, label %13

13:                                               ; preds = %.lr.ph
  tail call void @free(ptr noundef nonnull %12) #15
  %14 = load ptr, ptr %8, align 8, !tbaa !52
  %15 = getelementptr inbounds nuw ptr, ptr %14, i64 %indvars.iv
  store ptr null, ptr %15, align 8, !tbaa !19
  %.pre43 = load i32, ptr %5, align 4, !tbaa !51
  br label %16

16:                                               ; preds = %13, %.lr.ph
  %17 = phi i32 [ %.pre43, %13 ], [ %9, %.lr.ph ]
  %18 = phi ptr [ %14, %13 ], [ %10, %.lr.ph ]
  %indvars.iv.next = add nuw nsw i64 %indvars.iv, 1
  %19 = sext i32 %17 to i64
  %20 = icmp slt i64 %indvars.iv.next, %19
  br i1 %20, label %.lr.ph, label %._crit_edge.thread, !llvm.loop !53

._crit_edge:                                      ; preds = %.preheader
  %.not30 = icmp eq ptr %.pre, null
  br i1 %.not30, label %23, label %._crit_edge.thread

._crit_edge.thread:                               ; preds = %16, %._crit_edge
  %21 = phi ptr [ %.pre, %._crit_edge ], [ %18, %16 ]
  %22 = getelementptr inbounds nuw i8, ptr %0, i64 40
  tail call void @free(ptr noundef nonnull %21) #15
  store ptr null, ptr %22, align 8, !tbaa !52
  br label %23

23:                                               ; preds = %._crit_edge.thread, %._crit_edge, %2
  %24 = load i32, ptr %0, align 8, !tbaa !38
  %25 = icmp sgt i32 %24, 0
  br i1 %25, label %.lr.ph37, label %._crit_edge38

.lr.ph37:                                         ; preds = %23
  %26 = getelementptr inbounds nuw i8, ptr %0, i64 8
  br label %27

27:                                               ; preds = %.lr.ph37, %27
  %indvars.iv40 = phi i64 [ 0, %.lr.ph37 ], [ %indvars.iv.next41, %27 ]
  %28 = load ptr, ptr %26, align 8, !tbaa !41
  %29 = getelementptr inbounds nuw ptr, ptr %28, i64 %indvars.iv40
  %30 = load ptr, ptr %29, align 8, !tbaa !42
  tail call void @Sat_MmFixedStop(ptr noundef %30, i32 noundef %1)
  %indvars.iv.next41 = add nuw nsw i64 %indvars.iv40, 1
  %31 = load i32, ptr %0, align 8, !tbaa !38
  %32 = sext i32 %31 to i64
  %33 = icmp slt i64 %indvars.iv.next41, %32
  br i1 %33, label %27, label %._crit_edge38, !llvm.loop !54

._crit_edge38:                                    ; preds = %27, %23
  %34 = getelementptr inbounds nuw i8, ptr %0, i64 8
  %35 = load ptr, ptr %34, align 8, !tbaa !41
  %.not31 = icmp eq ptr %35, null
  br i1 %.not31, label %37, label %36

36:                                               ; preds = %._crit_edge38
  tail call void @free(ptr noundef nonnull %35) #15
  store ptr null, ptr %34, align 8, !tbaa !41
  br label %37

37:                                               ; preds = %._crit_edge38, %36
  %38 = getelementptr inbounds nuw i8, ptr %0, i64 24
  %39 = load ptr, ptr %38, align 8, !tbaa !46
  %.not32 = icmp eq ptr %39, null
  br i1 %.not32, label %41, label %40

40:                                               ; preds = %37
  tail call void @free(ptr noundef nonnull %39) #15
  br label %41

41:                                               ; preds = %40, %37
  tail call void @free(ptr noundef nonnull %0) #15
  ret void
}